; Function Attrs: mustprogress uwtable
define void @_ZN10MainWindow21closeFilterDockDialogEv(ptr nocapture noundef nonnull align 8 dereferenceable(1376) %0) local_unnamed_addr #9 align 2 {
  %2 = getelementptr inbounds i8, ptr %0, i64 144
  %3 = load ptr, ptr %2, align 8
  %.not = icmp eq ptr %3, null
  br i1 %.not, label %6, label %4

4:                                                ; preds = %1
  %5 = tail call noundef zeroext i1 @_ZN7QWidget5closeEv(ptr noundef nonnull align 8 dereferenceable(48) %3)
  store ptr null, ptr %2, align 8
  br label %6

6:                                                ; preds = %4, %1
  ret void
}